target datalayout = "e-m:e-p270:32:32-p271:32:32-p272:64:64-i64:64-i128:128-f80:128-n8:16:32:64-S128"
target triple = "x86_64-pc-linux-gnu"

%struct.blake2b_state = type <{ [8 x i64], [2 x i64], [2 x i64], [256 x i8], i64, i8 }>

@blake2b_compress = internal global ptr @_sodium_blake2b_compress_ref, align 8

; Function Attrs: inlinehint nounwind ssp uwtable
define internal i32 @blake2b_set_lastnode(ptr noundef %0) #2 {
  %2 = alloca ptr, align 8
  store ptr %0, ptr %2, align 8
  %3 = load ptr, ptr %2, align 8
  %4 = getelementptr inbounds nuw %struct.blake2b_state, ptr %3, i32 0, i32 2
  %5 = getelementptr [2 x i64], ptr %4, i64 0, i64 1
  store i64 -1, ptr %5, align 1
  ret i32 0
}

; Function Attrs: inlinehint nounwind ssp uwtable
define internal void @store64_le(ptr noundef %0, i64 noundef %1) #2 {
  %3 = alloca ptr, align 8
  %4 = alloca i64, align 8
  store ptr %0, ptr %3, align 8
  store i64 %1, ptr %4, align 8
  %5 = load ptr, ptr %3, align 8
  %6 = call ptr @memcpy.inline(ptr noundef %5, ptr noundef %4, i64 noundef 8) #8
  ret void
}

; Function Attrs: alwaysinline nounwind
define internal ptr @memset.inline(ptr nonnull %0, i32 %1, i64 %2) #4 {
  %4 = alloca ptr, align 8
  %5 = alloca i32, align 4
  %6 = alloca i64, align 8
  store ptr %0, ptr %4, align 8
  store i32 %1, ptr %5, align 4
  store i64 %2, ptr %6, align 8
  %7 = load ptr, ptr %4, align 8
  %8 = load i32, ptr %5, align 4
  %9 = load i64, ptr %6, align 8
  %10 = load ptr, ptr %4, align 8
  %11 = call i64 @llvm.objectsize.i64.p0(ptr %10, i1 false, i1 true, i1 true)
  %12 = call ptr @__memset_chk(ptr noundef %7, i32 noundef %8, i64 noundef %9, i64 noundef %11) #8
  ret ptr %12
}

; Function Attrs: inlinehint nounwind ssp uwtable
define internal i32 @blake2b_set_lastblock(ptr noundef %0) #2 {
  %2 = alloca ptr, align 8
  store ptr %0, ptr %2, align 8
  %3 = load ptr, ptr %2, align 8
  %4 = getelementptr inbounds nuw %struct.blake2b_state, ptr %3, i32 0, i32 5
  %5 = load i8, ptr %4, align 1
  %6 = icmp ne i8 %5, 0
  br i1 %6, label %7, label %10

7:                                                ; preds = %1
  %8 = load ptr, ptr %2, align 8
  %9 = call i32 @blake2b_set_lastnode(ptr noundef %8)
  br label %10

10:                                               ; preds = %7, %1
  %11 = load ptr, ptr %2, align 8
  %12 = getelementptr inbounds nuw %struct.blake2b_state, ptr %11, i32 0, i32 2
  %13 = getelementptr [2 x i64], ptr %12, i64 0, i64 0
  store i64 -1, ptr %13, align 1
  ret i32 0
}

; Function Attrs: alwaysinline nounwind
define internal ptr @memcpy.inline(ptr noalias nonnull %0, ptr noalias nonnull %1, i64 %2) #4 {
  %4 = alloca ptr, align 8
  %5 = alloca ptr, align 8
  %6 = alloca i64, align 8
  store ptr %0, ptr %4, align 8
  store ptr %1, ptr %5, align 8
  store i64 %2, ptr %6, align 8
  %7 = load ptr, ptr %4, align 8
  %8 = load ptr, ptr %5, align 8
  %9 = load i64, ptr %6, align 8
  %10 = load ptr, ptr %4, align 8
  %11 = call i64 @llvm.objectsize.i64.p0(ptr %10, i1 false, i1 true, i1 true)
  %12 = call ptr @__memcpy_chk(ptr noundef %7, ptr noundef %8, i64 noundef %9, i64 noundef %11) #8
  ret ptr %12
}

; Function Attrs: inlinehint nounwind ssp uwtable
define internal i32 @blake2b_increment_counter(ptr noundef %0, i64 noundef %1) #2 {
  %3 = alloca ptr, align 8
  %4 = alloca i64, align 8
  %5 = alloca i128, align 16
  store ptr %0, ptr %3, align 8
  store i64 %1, ptr %4, align 8
  call void @llvm.lifetime.start.p0(i64 16, ptr %5) #8
  %6 = load ptr, ptr %3, align 8
  %7 = getelementptr inbounds nuw %struct.blake2b_state, ptr %6, i32 0, i32 1
  %8 = getelementptr [2 x i64], ptr %7, i64 0, i64 1
  %9 = load i64, ptr %8, align 1
  %10 = zext i64 %9 to i128
  %11 = shl i128 %10, 64
  %12 = load ptr, ptr %3, align 8
  %13 = getelementptr inbounds nuw %struct.blake2b_state, ptr %12, i32 0, i32 1
  %14 = getelementptr [2 x i64], ptr %13, i64 0, i64 0
  %15 = load i64, ptr %14, align 1
  %16 = zext i64 %15 to i128
  %17 = or i128 %11, %16
  store i128 %17, ptr %5, align 16
  %18 = load i64, ptr %4, align 8
  %19 = zext i64 %18 to i128
  %20 = load i128, ptr %5, align 16
  %21 = add i128 %20, %19
  store i128 %21, ptr %5, align 16
  %22 = load i128, ptr %5, align 16
  %23 = lshr i128 %22, 0
  %24 = trunc i128 %23 to i64
  %25 = load ptr, ptr %3, align 8
  %26 = getelementptr inbounds nuw %struct.blake2b_state, ptr %25, i32 0, i32 1
  %27 = getelementptr [2 x i64], ptr %26, i64 0, i64 0
  store i64 %24, ptr %27, align 1
  %28 = load i128, ptr %5, align 16
  %29 = lshr i128 %28, 64
  %30 = trunc i128 %29 to i64
  %31 = load ptr, ptr %3, align 8
  %32 = getelementptr inbounds nuw %struct.blake2b_state, ptr %31, i32 0, i32 1
  %33 = getelementptr [2 x i64], ptr %32, i64 0, i64 1
  store i64 %30, ptr %33, align 1
  call void @llvm.lifetime.end.p0(i64 16, ptr %5) #8
  ret i32 0
}

; Function Attrs: inlinehint nounwind ssp uwtable
define internal i32 @blake2b_is_lastblock(ptr noundef %0) #2 {
  %2 = alloca ptr, align 8
  store ptr %0, ptr %2, align 8
  %3 = load ptr, ptr %2, align 8
  %4 = getelementptr inbounds nuw %struct.blake2b_state, ptr %3, i32 0, i32 2
  %5 = getelementptr [2 x i64], ptr %4, i64 0, i64 0
  %6 = load i64, ptr %5, align 1
  %7 = icmp ne i64 %6, 0
  %8 = zext i1 %7 to i32
  ret i32 %8
}

; Function Attrs: nounwind ssp uwtable
define hidden i32 @_sodium_blake2b_final(ptr noundef %0, ptr noundef %1, i8 noundef zeroext %2) #0 {
  %4 = alloca i32, align 4
  %5 = alloca ptr, align 8
  %6 = alloca ptr, align 8
  %7 = alloca i8, align 1
  %8 = alloca [64 x i8], align 16
  %9 = alloca i32, align 4
  store ptr %0, ptr %5, align 8
  store ptr %1, ptr %6, align 8
  store i8 %2, ptr %7, align 1
  call void @llvm.lifetime.start.p0(i64 64, ptr %8) #8
  %10 = load i8, ptr %7, align 1
  %11 = icmp ne i8 %10, 0
  br i1 %11, label %12, label %16

12:                                               ; preds = %3
  %13 = load i8, ptr %7, align 1
  %14 = zext i8 %13 to i32
  %15 = icmp sgt i32 %14, 64
  br i1 %15, label %16, label %17

16:                                               ; preds = %12, %3
  call void @sodium_misuse() #9
  unreachable

17:                                               ; preds = %12
  %18 = load ptr, ptr %5, align 8
  %19 = call i32 @blake2b_is_lastblock(ptr noundef %18)
  %20 = icmp ne i32 %19, 0
  br i1 %20, label %21, label %22

21:                                               ; preds = %17
  store i32 -1, ptr %4, align 4
  store i32 1, ptr %9, align 4
  br label %136

22:                                               ; preds = %17
  %23 = load ptr, ptr %5, align 8
  %24 = getelementptr inbounds nuw %struct.blake2b_state, ptr %23, i32 0, i32 4
  %25 = load i64, ptr %24, align 1
  %26 = icmp ugt i64 %25, 128
  br i1 %26, label %27, label %51

27:                                               ; preds = %22
  %28 = load ptr, ptr %5, align 8
  %29 = call i32 @blake2b_increment_counter(ptr noundef %28, i64 noundef 128)
  %30 = load ptr, ptr @blake2b_compress, align 8
  %31 = load ptr, ptr %5, align 8
  %32 = load ptr, ptr %5, align 8
  %33 = getelementptr inbounds nuw %struct.blake2b_state, ptr %32, i32 0, i32 3
  %34 = getelementptr inbounds [256 x i8], ptr %33, i64 0, i64 0
  %35 = call i32 %30(ptr noundef %31, ptr noundef %34)
  %36 = load ptr, ptr %5, align 8
  %37 = getelementptr inbounds nuw %struct.blake2b_state, ptr %36, i32 0, i32 4
  %38 = load i64, ptr %37, align 1
  %39 = sub i64 %38, 128
  store i64 %39, ptr %37, align 1
  %40 = load ptr, ptr %5, align 8
  %41 = getelementptr inbounds nuw %struct.blake2b_state, ptr %40, i32 0, i32 3
  %42 = getelementptr inbounds [256 x i8], ptr %41, i64 0, i64 0
  %43 = load ptr, ptr %5, align 8
  %44 = getelementptr inbounds nuw %struct.blake2b_state, ptr %43, i32 0, i32 3
  %45 = getelementptr inbounds [256 x i8], ptr %44, i64 0, i64 0
  %46 = getelementptr i8, ptr %45, i64 128
  %47 = load ptr, ptr %5, align 8
  %48 = getelementptr inbounds nuw %struct.blake2b_state, ptr %47, i32 0, i32 4
  %49 = load i64, ptr %48, align 1
  %50 = call ptr @memcpy.inline(ptr noundef %42, ptr noundef %46, i64 noundef %49) #8
  br label %51

51:                                               ; preds = %27, %22
  %52 = load ptr, ptr %5, align 8
  %53 = load ptr, ptr %5, align 8
  %54 = getelementptr inbounds nuw %struct.blake2b_state, ptr %53, i32 0, i32 4
  %55 = load i64, ptr %54, align 1
  %56 = call i32 @blake2b_increment_counter(ptr noundef %52, i64 noundef %55)
  %57 = load ptr, ptr %5, align 8
  %58 = call i32 @blake2b_set_lastblock(ptr noundef %57)
  %59 = load ptr, ptr %5, align 8
  %60 = getelementptr inbounds nuw %struct.blake2b_state, ptr %59, i32 0, i32 3
  %61 = getelementptr inbounds [256 x i8], ptr %60, i64 0, i64 0
  %62 = load ptr, ptr %5, align 8
  %63 = getelementptr inbounds nuw %struct.blake2b_state, ptr %62, i32 0, i32 4
  %64 = load i64, ptr %63, align 1
  %65 = getelementptr i8, ptr %61, i64 %64
  %66 = load ptr, ptr %5, align 8
  %67 = getelementptr inbounds nuw %struct.blake2b_state, ptr %66, i32 0, i32 4
  %68 = load i64, ptr %67, align 1
  %69 = sub i64 256, %68
  %70 = call ptr @memset.inline(ptr noundef %65, i32 noundef 0, i64 noundef %69) #8
  %71 = load ptr, ptr @blake2b_compress, align 8
  %72 = load ptr, ptr %5, align 8
  %73 = load ptr, ptr %5, align 8
  %74 = getelementptr inbounds nuw %struct.blake2b_state, ptr %73, i32 0, i32 3
  %75 = getelementptr inbounds [256 x i8], ptr %74, i64 0, i64 0
  %76 = call i32 %71(ptr noundef %72, ptr noundef %75)
  %77 = getelementptr inbounds [64 x i8], ptr %8, i64 0, i64 0
  %78 = getelementptr i8, ptr %77, i64 0
  %79 = load ptr, ptr %5, align 8
  %80 = getelementptr inbounds nuw %struct.blake2b_state, ptr %79, i32 0, i32 0
  %81 = getelementptr [8 x i64], ptr %80, i64 0, i64 0
  %82 = load i64, ptr %81, align 1
  call void @store64_le(ptr noundef %78, i64 noundef %82)
  %83 = getelementptr inbounds [64 x i8], ptr %8, i64 0, i64 0
  %84 = getelementptr i8, ptr %83, i64 8
  %85 = load ptr, ptr %5, align 8
  %86 = getelementptr inbounds nuw %struct.blake2b_state, ptr %85, i32 0, i32 0
  %87 = getelementptr [8 x i64], ptr %86, i64 0, i64 1
  %88 = load i64, ptr %87, align 1
  call void @store64_le(ptr noundef %84, i64 noundef %88)
  %89 = getelementptr inbounds [64 x i8], ptr %8, i64 0, i64 0
  %90 = getelementptr i8, ptr %89, i64 16
  %91 = load ptr, ptr %5, align 8
  %92 = getelementptr inbounds nuw %struct.blake2b_state, ptr %91, i32 0, i32 0
  %93 = getelementptr [8 x i64], ptr %92, i64 0, i64 2
  %94 = load i64, ptr %93, align 1
  call void @store64_le(ptr noundef %90, i64 noundef %94)
  %95 = getelementptr inbounds [64 x i8], ptr %8, i64 0, i64 0
  %96 = getelementptr i8, ptr %95, i64 24
  %97 = load ptr, ptr %5, align 8
  %98 = getelementptr inbounds nuw %struct.blake2b_state, ptr %97, i32 0, i32 0
  %99 = getelementptr [8 x i64], ptr %98, i64 0, i64 3
  %100 = load i64, ptr %99, align 1
  call void @store64_le(ptr noundef %96, i64 noundef %100)
  %101 = getelementptr inbounds [64 x i8], ptr %8, i64 0, i64 0
  %102 = getelementptr i8, ptr %101, i64 32
  %103 = load ptr, ptr %5, align 8
  %104 = getelementptr inbounds nuw %struct.blake2b_state, ptr %103, i32 0, i32 0
  %105 = getelementptr [8 x i64], ptr %104, i64 0, i64 4
  %106 = load i64, ptr %105, align 1
  call void @store64_le(ptr noundef %102, i64 noundef %106)
  %107 = getelementptr inbounds [64 x i8], ptr %8, i64 0, i64 0
  %108 = getelementptr i8, ptr %107, i64 40
  %109 = load ptr, ptr %5, align 8
  %110 = getelementptr inbounds nuw %struct.blake2b_state, ptr %109, i32 0, i32 0
  %111 = getelementptr [8 x i64], ptr %110, i64 0, i64 5
  %112 = load i64, ptr %111, align 1
  call void @store64_le(ptr noundef %108, i64 noundef %112)
  %113 = getelementptr inbounds [64 x i8], ptr %8, i64 0, i64 0
  %114 = getelementptr i8, ptr %113, i64 48
  %115 = load ptr, ptr %5, align 8
  %116 = getelementptr inbounds nuw %struct.blake2b_state, ptr %115, i32 0, i32 0
  %117 = getelementptr [8 x i64], ptr %116, i64 0, i64 6
  %118 = load i64, ptr %117, align 1
  call void @store64_le(ptr noundef %114, i64 noundef %118)
  %119 = getelementptr inbounds [64 x i8], ptr %8, i64 0, i64 0
  %120 = getelementptr i8, ptr %119, i64 56
  %121 = load ptr, ptr %5, align 8
  %122 = getelementptr inbounds nuw %struct.blake2b_state, ptr %121, i32 0, i32 0
  %123 = getelementptr [8 x i64], ptr %122, i64 0, i64 7
  %124 = load i64, ptr %123, align 1
  call void @store64_le(ptr noundef %120, i64 noundef %124)
  %125 = load ptr, ptr %6, align 8
  %126 = getelementptr inbounds [64 x i8], ptr %8, i64 0, i64 0
  %127 = load i8, ptr %7, align 1
  %128 = zext i8 %127 to i64
  %129 = call ptr @memcpy.inline(ptr noundef %125, ptr noundef %126, i64 noundef %128) #8
  %130 = load ptr, ptr %5, align 8
  %131 = getelementptr inbounds nuw %struct.blake2b_state, ptr %130, i32 0, i32 0
  %132 = getelementptr inbounds [8 x i64], ptr %131, i64 0, i64 0
  call void @sodium_memzero(ptr noundef %132, i64 noundef 64)
  %133 = load ptr, ptr %5, align 8
  %134 = getelementptr inbounds nuw %struct.blake2b_state, ptr %133, i32 0, i32 3
  %135 = getelementptr inbounds [256 x i8], ptr %134, i64 0, i64 0
  call void @sodium_memzero(ptr noundef %135, i64 noundef 256)
  store i32 0, ptr %4, align 4
  store i32 1, ptr %9, align 4
  br label %136

136:                                              ; preds = %51, %21
  call void @llvm.lifetime.end.p0(i64 64, ptr %8) #8
  %137 = load i32, ptr %4, align 4
  ret i32 %137
}