; Function Attrs: nounwind ssp uwtable
define hidden range(i32 -1, 1) i32 @_sodium_blake2b_final(ptr noundef %0, ptr noundef %1, i8 noundef zeroext %2) local_unnamed_addr #2 {
  %4 = alloca [64 x i8], align 16
  call void @llvm.lifetime.start.p0(i64 64, ptr nonnull %4)
  %5 = add i8 %2, -65
  %or.cond = icmp ult i8 %5, -64
  br i1 %or.cond, label %6, label %7

6:                                                ; preds = %3
  tail call void @sodium_misuse() #9
  unreachable

7:                                                ; preds = %3
  %8 = getelementptr i8, ptr %0, i64 80
  %.val = load i64, ptr %8, align 1
  %.not34 = icmp eq i64 %.val, 0
  br i1 %.not34, label %9, label %72

9:                                                ; preds = %7
  %10 = getelementptr inbounds nuw i8, ptr %0, i64 352
  %11 = load i64, ptr %10, align 1
  %12 = icmp ugt i64 %11, 128
  br i1 %12, label %13, label %32

13:                                               ; preds = %9
  %14 = getelementptr inbounds nuw i8, ptr %0, i64 64
  %15 = getelementptr i8, ptr %0, i64 72
  %16 = load i64, ptr %15, align 1
  %17 = zext i64 %16 to i128
  %18 = shl nuw i128 %17, 64
  %19 = load i64, ptr %14, align 1
  %20 = zext i64 %19 to i128
  %21 = or disjoint i128 %18, %20
  %22 = add i128 %21, 128
  %23 = trunc i128 %22 to i64
  store i64 %23, ptr %14, align 1
  %24 = lshr i128 %22, 64
  %25 = trunc nuw i128 %24 to i64
  store i64 %25, ptr %15, align 1
  %26 = load ptr, ptr @blake2b_compress, align 8
  %27 = getelementptr inbounds nuw i8, ptr %0, i64 96
  %28 = tail call i32 %26(ptr noundef nonnull %0, ptr noundef nonnull %27) #8, !callees !10
  %29 = load i64, ptr %10, align 1
  %30 = add i64 %29, -128
  store i64 %30, ptr %10, align 1
  %31 = getelementptr i8, ptr %0, i64 224
  tail call void @llvm.memcpy.p0.p0.i64(ptr noundef nonnull align 1 %27, ptr noundef nonnull align 1 %31, i64 noundef %30, i1 noundef false) #8
  %.pre = load i64, ptr %10, align 1
  br label %32

32:                                               ; preds = %13, %9
  %33 = phi i64 [ %.pre, %13 ], [ %11, %9 ]
  %34 = getelementptr inbounds nuw i8, ptr %0, i64 64
  %35 = getelementptr i8, ptr %0, i64 72
  %36 = load i64, ptr %35, align 1
  %37 = zext i64 %36 to i128
  %38 = shl nuw i128 %37, 64
  %39 = load i64, ptr %34, align 1
  %40 = zext i64 %39 to i128
  %41 = or disjoint i128 %38, %40
  %42 = zext i64 %33 to i128
  %43 = add i128 %41, %42
  %44 = trunc i128 %43 to i64
  store i64 %44, ptr %34, align 1
  %45 = lshr i128 %43, 64
  %46 = trunc nuw i128 %45 to i64
  store i64 %46, ptr %35, align 1
  %47 = getelementptr inbounds nuw i8, ptr %0, i64 360
  %48 = load i8, ptr %47, align 1
  %.not.i = icmp eq i8 %48, 0
  br i1 %.not.i, label %blake2b_set_lastblock.exit, label %49

49:                                               ; preds = %32
  %50 = getelementptr i8, ptr %0, i64 88
  store i64 -1, ptr %50, align 1
  br label %blake2b_set_lastblock.exit

blake2b_set_lastblock.exit:                       ; preds = %32, %49
  store i64 -1, ptr %8, align 1
  %51 = getelementptr inbounds nuw i8, ptr %0, i64 96
  %52 = getelementptr i8, ptr %51, i64 %33
  %53 = sub i64 256, %33
  tail call void @llvm.memset.p0.i64(ptr noundef nonnull align 1 %52, i8 noundef 0, i64 noundef %53, i1 noundef false) #8
  %54 = load ptr, ptr @blake2b_compress, align 8
  %55 = tail call i32 %54(ptr noundef nonnull %0, ptr noundef nonnull %51) #8, !callees !10
  %56 = load i64, ptr %0, align 1
  store i64 %56, ptr %4, align 16
  %57 = getelementptr i8, ptr %0, i64 8
  %58 = load i64, ptr %57, align 1
  %.8..sroa_idx = getelementptr inbounds nuw i8, ptr %4, i64 8
  store i64 %58, ptr %.8..sroa_idx, align 8
  %59 = getelementptr i8, ptr %0, i64 16
  %60 = load i64, ptr %59, align 1
  %.16..sroa_idx = getelementptr inbounds nuw i8, ptr %4, i64 16
  store i64 %60, ptr %.16..sroa_idx, align 16
  %61 = getelementptr i8, ptr %0, i64 24
  %62 = load i64, ptr %61, align 1
  %.24..sroa_idx = getelementptr inbounds nuw i8, ptr %4, i64 24
  store i64 %62, ptr %.24..sroa_idx, align 8
  %63 = getelementptr i8, ptr %0, i64 32
  %64 = load i64, ptr %63, align 1
  %.32..sroa_idx = getelementptr inbounds nuw i8, ptr %4, i64 32
  store i64 %64, ptr %.32..sroa_idx, align 16
  %65 = getelementptr i8, ptr %0, i64 40
  %66 = load i64, ptr %65, align 1
  %.40..sroa_idx = getelementptr inbounds nuw i8, ptr %4, i64 40
  store i64 %66, ptr %.40..sroa_idx, align 8
  %67 = getelementptr i8, ptr %0, i64 48
  %68 = load i64, ptr %67, align 1
  %.48..sroa_idx = getelementptr inbounds nuw i8, ptr %4, i64 48
  store i64 %68, ptr %.48..sroa_idx, align 16
  %69 = getelementptr i8, ptr %0, i64 56
  %70 = load i64, ptr %69, align 1
  %.56..sroa_idx = getelementptr inbounds nuw i8, ptr %4, i64 56
  store i64 %70, ptr %.56..sroa_idx, align 8
  %71 = zext nneg i8 %2 to i64
  call void @llvm.memcpy.p0.p0.i64(ptr noundef nonnull align 1 %1, ptr noundef nonnull align 16 %4, i64 noundef %71, i1 noundef false) #8
  tail call void @sodium_memzero(ptr noundef nonnull %0, i64 noundef 64) #8
  tail call void @sodium_memzero(ptr noundef nonnull %51, i64 noundef 256) #8
  br label %72

72:                                               ; preds = %7, %blake2b_set_lastblock.exit
  %.0 = phi i32 [ 0, %blake2b_set_lastblock.exit ], [ -1, %7 ]
  call void @llvm.lifetime.end.p0(i64 64, ptr nonnull %4)
  ret i32 %.0
}